target datalayout = "e-m:e-p270:32:32-p271:32:32-p272:64:64-i64:64-i128:128-f80:128-n8:16:32:64-S128"
target triple = "x86_64-pc-linux-gnu"

%"class.JvmtiRawMonitor::QNode" = type { ptr, ptr, ptr, i32, i32 }
%class.Thread = type { %class.ThreadShadow.base, i64, [43 x i64], ptr, ptr, i32, ptr, i64, i64, %class.ThreadLocalAllocBuffer, i64, %class.ThreadHeapSampler, %class.ThreadStatisticalInfo, %class.JfrThreadLocal, ptr, ptr, ptr, ptr, ptr, ptr, i64, i32, i32, ptr, i32, i32, i32, i32, i8, ptr }
%class.ThreadShadow.base = type <{ ptr, ptr, ptr, i32 }>
%class.ThreadLocalAllocBuffer = type <{ ptr, ptr, ptr, ptr, ptr, i64, i64, i64, i64, i32, i32, i32, i32, i64, %class.AdaptiveWeightedAverage, [4 x i8] }>
%class.AdaptiveWeightedAverage = type { float, i32, i32, i8, float }
%class.ThreadHeapSampler = type { i64 }
%class.ThreadStatisticalInfo = type { i64, i64 }
%class.JfrThreadLocal = type <{ ptr, ptr, ptr, ptr, ptr, ptr, ptr, ptr, ptr, ptr, %class.RefCountHandle, i64, i64, i64, i64, i64, i64, i64, i64, i64, i64, i64, i32, i32, i32, i16, i8, i8, i8, i8, i8, [5 x i8] }>
%class.RefCountHandle = type { ptr }
%class.JvmtiRawMonitor = type { ptr, i32, ptr, ptr, i32, ptr }
%class.PlatformEvent = type { [4 x double], i32, i32, [1 x %union.pthread_mutex_t], [1 x %union.pthread_cond_t], [2 x double] }
%union.pthread_mutex_t = type { %struct.__pthread_mutex_s }
%struct.__pthread_mutex_s = type { i32, i32, i32, i32, i32, i16, i16, %struct.__pthread_internal_list }
%struct.__pthread_internal_list = type { ptr, ptr }
%union.pthread_cond_t = type { %struct.__pthread_cond_s }
%struct.__pthread_cond_s = type { %union.__atomic_wide_counter, %union.__atomic_wide_counter, [2 x i32], [2 x i32], i32, i32, [2 x i32] }
%union.__atomic_wide_counter = type { i64 }
%"struct.Atomic::CmpxchgImpl" = type { i8 }
%"struct.Atomic::PlatformCmpxchg" = type { i8 }

@RawMonitor_lock = external global ptr, align 8
@_ZN15JvmtiRawMonitor5QNodeC1EP6Thread = hidden unnamed_addr alias void (ptr, ptr), ptr @_ZN15JvmtiRawMonitor5QNodeC2EP6Thread

; Function Attrs: mustprogress nounwind uwtable
define linkonce_odr hidden noundef ptr @_ZNK6Atomic15PlatformCmpxchgILm8EEclIP6ThreadEET_PVS5_S5_S5_19atomic_memory_order(ptr noundef nonnull align 1 dereferenceable(1) %0, ptr noundef %1, ptr noundef %2, ptr noundef %3, i32 noundef %4) #1 comdat align 2 {
  %6 = alloca ptr, align 8
  %7 = alloca ptr, align 8
  %8 = alloca ptr, align 8
  %9 = alloca ptr, align 8
  %10 = alloca i32, align 4
  store ptr %0, ptr %6, align 8
  store ptr %1, ptr %7, align 8
  store ptr %2, ptr %8, align 8
  store ptr %3, ptr %9, align 8
  store i32 %4, ptr %10, align 4
  %11 = load ptr, ptr %9, align 8
  %12 = load ptr, ptr %8, align 8
  %13 = load ptr, ptr %7, align 8
  %14 = call ptr asm sideeffect "lock cmpxchgq $1,($3)", "={ax},r,{ax},r,~{cc},~{memory},~{dirflag},~{fpsr},~{flags}"(ptr %11, ptr %12, ptr %13) #7, !srcloc !19
  store ptr %14, ptr %9, align 8
  %15 = load ptr, ptr %9, align 8
  ret ptr %15
}

; Function Attrs: mustprogress nounwind uwtable
define linkonce_odr hidden noundef ptr @_ZNK6Atomic11CmpxchgImplIP6ThreadS2_S2_vEclEPVS2_S2_S2_19atomic_memory_order(ptr noundef nonnull align 1 dereferenceable(1) %0, ptr noundef %1, ptr noundef %2, ptr noundef %3, i32 noundef %4) #1 comdat align 2 {
  %6 = alloca ptr, align 8
  %7 = alloca ptr, align 8
  %8 = alloca ptr, align 8
  %9 = alloca ptr, align 8
  %10 = alloca i32, align 4
  %11 = alloca ptr, align 8
  %12 = alloca ptr, align 8
  %13 = alloca %"struct.Atomic::PlatformCmpxchg", align 1
  store ptr %0, ptr %6, align 8
  store ptr %1, ptr %7, align 8
  store ptr %2, ptr %8, align 8
  store ptr %3, ptr %9, align 8
  store i32 %4, ptr %10, align 4
  %14 = load ptr, ptr %9, align 8
  store ptr %14, ptr %11, align 8
  %15 = load ptr, ptr %8, align 8
  store ptr %15, ptr %12, align 8
  %16 = load ptr, ptr %7, align 8
  %17 = load ptr, ptr %12, align 8
  %18 = load ptr, ptr %11, align 8
  %19 = load i32, ptr %10, align 4
  %20 = call noundef ptr @_ZNK6Atomic15PlatformCmpxchgILm8EEclIP6ThreadEET_PVS5_S5_S5_19atomic_memory_order(ptr noundef nonnull align 1 dereferenceable(1) %13, ptr noundef %16, ptr noundef %17, ptr noundef %18, i32 noundef %19)
  ret ptr %20
}

; Function Attrs: mustprogress nounwind uwtable
define internal void @_ZL16compiler_barrierv() #1 {
  call void asm sideeffect "", "~{memory},~{dirflag},~{fpsr},~{flags}"() #7, !srcloc !15
  ret void
}

; Function Attrs: mustprogress nounwind uwtable
define linkonce_odr hidden noundef ptr @_ZN6Atomic7cmpxchgIP6ThreadS2_S2_EET_PVS3_T0_T1_19atomic_memory_order(ptr noundef %0, ptr noundef %1, ptr noundef %2, i32 noundef %3) #1 comdat align 2 {
  %5 = alloca ptr, align 8
  %6 = alloca ptr, align 8
  %7 = alloca ptr, align 8
  %8 = alloca i32, align 4
  %9 = alloca %"struct.Atomic::CmpxchgImpl", align 1
  store ptr %0, ptr %5, align 8
  store ptr %1, ptr %6, align 8
  store ptr %2, ptr %7, align 8
  store i32 %3, ptr %8, align 4
  %10 = load ptr, ptr %5, align 8
  %11 = load ptr, ptr %6, align 8
  %12 = load ptr, ptr %7, align 8
  %13 = load i32, ptr %8, align 4
  %14 = call noundef ptr @_ZNK6Atomic11CmpxchgImplIP6ThreadS2_S2_vEclEPVS2_S2_S2_19atomic_memory_order(ptr noundef nonnull align 1 dereferenceable(1) %9, ptr noundef %10, ptr noundef %11, ptr noundef %12, i32 noundef %13)
  ret ptr %14
}

; Function Attrs: mustprogress nounwind uwtable
define linkonce_odr hidden void @_ZN11OrderAccess5fenceEv() #1 comdat align 2 {
  call void asm sideeffect "lock; addl $$0,0(%rsp)", "~{cc},~{memory},~{dirflag},~{fpsr},~{flags}"() #7, !srcloc !11
  call void @_ZL16compiler_barrierv()
  ret void
}

; Function Attrs: mustprogress nounwind uwtable
define linkonce_odr hidden void @_ZN13PlatformEvent5resetEv(ptr noundef nonnull align 8 dereferenceable(144) %0) #1 comdat align 2 {
  %2 = alloca ptr, align 8
  store ptr %0, ptr %2, align 8
  %3 = load ptr, ptr %2, align 8
  %4 = getelementptr inbounds %class.PlatformEvent, ptr %3, i32 0, i32 1
  store volatile i32 0, ptr %4, align 8
  ret void
}

; Function Attrs: mustprogress nounwind uwtable
define linkonce_odr hidden noundef ptr @_ZN10JavaThread4castEP6Thread(ptr noundef %0) #1 comdat align 2 {
  %2 = alloca ptr, align 8
  store ptr %0, ptr %2, align 8
  %3 = load ptr, ptr %2, align 8
  ret ptr %3
}

; Function Attrs: mustprogress nounwind uwtable
define linkonce_odr hidden noundef zeroext i1 @_ZN6Atomic15replace_if_nullI6ThreadS1_EEbPVPT_PT0_19atomic_memory_order(ptr noundef %0, ptr noundef %1, i32 noundef %2) #1 comdat align 2 {
  %4 = alloca ptr, align 8
  %5 = alloca ptr, align 8
  %6 = alloca i32, align 4
  %7 = alloca ptr, align 8
  store ptr %0, ptr %4, align 8
  store ptr %1, ptr %5, align 8
  store i32 %2, ptr %6, align 4
  store ptr null, ptr %7, align 8
  %8 = load ptr, ptr %7, align 8
  %9 = load ptr, ptr %4, align 8
  %10 = load ptr, ptr %7, align 8
  %11 = load ptr, ptr %5, align 8
  %12 = load i32, ptr %6, align 4
  %13 = call noundef ptr @_ZN6Atomic7cmpxchgIP6ThreadS2_S2_EET_PVS3_T0_T1_19atomic_memory_order(ptr noundef %9, ptr noundef %10, ptr noundef %11, i32 noundef %12)
  %14 = icmp eq ptr %8, %13
  ret i1 %14
}

; Function Attrs: mustprogress nounwind uwtable
define hidden void @_ZN15JvmtiRawMonitor12simple_enterEP6Thread(ptr noundef nonnull align 8 dereferenceable(48) %0, ptr noundef %1) #1 align 2 {
  %3 = alloca ptr, align 8
  %4 = alloca ptr, align 8
  %5 = alloca %"class.JvmtiRawMonitor::QNode", align 8
  store ptr %0, ptr %3, align 8
  store ptr %1, ptr %4, align 8
  %6 = load ptr, ptr %3, align 8
  br label %7

7:                                                ; preds = %65, %2
  %8 = getelementptr inbounds %class.JvmtiRawMonitor, ptr %6, i32 0, i32 0
  %9 = load ptr, ptr %4, align 8
  %10 = call noundef zeroext i1 @_ZN6Atomic15replace_if_nullI6ThreadS1_EEbPVPT_PT0_19atomic_memory_order(ptr noundef %8, ptr noundef %9, i32 noundef 8)
  br i1 %10, label %11, label %22

11:                                               ; preds = %7
  %12 = load ptr, ptr %4, align 8
  %13 = load ptr, ptr %12, align 8
  %14 = getelementptr inbounds ptr, ptr %13, i64 7
  %15 = load ptr, ptr %14, align 8
  %16 = call noundef zeroext i1 %15(ptr noundef nonnull align 8 dereferenceable(888) %12)
  br i1 %16, label %17, label %21

17:                                               ; preds = %11
  %18 = load ptr, ptr %4, align 8
  %19 = call noundef ptr @_ZN10JavaThread4castEP6Thread(ptr noundef %18)
  %20 = call noundef zeroext i1 @_ZN12Continuation3pinEP10JavaThread(ptr noundef %19)
  br label %21

21:                                               ; preds = %17, %11
  br label %66

22:                                               ; preds = %7
  %23 = load ptr, ptr %4, align 8
  call void @_ZN15JvmtiRawMonitor5QNodeC1EP6Thread(ptr noundef nonnull align 8 dereferenceable(32) %5, ptr noundef %23)
  %24 = load ptr, ptr %4, align 8
  %25 = getelementptr inbounds %class.Thread, ptr %24, i32 0, i32 23
  %26 = load volatile ptr, ptr %25, align 8
  call void @_ZN13PlatformEvent5resetEv(ptr noundef nonnull align 8 dereferenceable(144) %26)
  %27 = getelementptr inbounds %"class.JvmtiRawMonitor::QNode", ptr %5, i32 0, i32 4
  store volatile i32 3, ptr %27, align 4
  %28 = load ptr, ptr @RawMonitor_lock, align 8
  call void @_ZN5Mutex28lock_without_safepoint_checkEv(ptr noundef nonnull align 8 dereferenceable(104) %28)
  %29 = getelementptr inbounds %class.JvmtiRawMonitor, ptr %6, i32 0, i32 2
  %30 = load volatile ptr, ptr %29, align 8
  %31 = getelementptr inbounds %"class.JvmtiRawMonitor::QNode", ptr %5, i32 0, i32 0
  store volatile ptr %30, ptr %31, align 8
  %32 = getelementptr inbounds %class.JvmtiRawMonitor, ptr %6, i32 0, i32 2
  store volatile ptr %5, ptr %32, align 8
  call void @_ZN11OrderAccess5fenceEv()
  %33 = getelementptr inbounds %class.JvmtiRawMonitor, ptr %6, i32 0, i32 0
  %34 = load volatile ptr, ptr %33, align 8
  %35 = icmp eq ptr %34, null
  br i1 %35, label %36, label %55

36:                                               ; preds = %22
  %37 = getelementptr inbounds %class.JvmtiRawMonitor, ptr %6, i32 0, i32 0
  %38 = load ptr, ptr %4, align 8
  %39 = call noundef zeroext i1 @_ZN6Atomic15replace_if_nullI6ThreadS1_EEbPVPT_PT0_19atomic_memory_order(ptr noundef %37, ptr noundef %38, i32 noundef 8)
  br i1 %39, label %40, label %55

40:                                               ; preds = %36
  %41 = getelementptr inbounds %"class.JvmtiRawMonitor::QNode", ptr %5, i32 0, i32 0
  %42 = load volatile ptr, ptr %41, align 8
  %43 = getelementptr inbounds %class.JvmtiRawMonitor, ptr %6, i32 0, i32 2
  store volatile ptr %42, ptr %43, align 8
  %44 = load ptr, ptr @RawMonitor_lock, align 8
  call void @_ZN5Mutex6unlockEv(ptr noundef nonnull align 8 dereferenceable(104) %44)
  %45 = load ptr, ptr %4, align 8
  %46 = load ptr, ptr %45, align 8
  %47 = getelementptr inbounds ptr, ptr %46, i64 7
  %48 = load ptr, ptr %47, align 8
  %49 = call noundef zeroext i1 %48(ptr noundef nonnull align 8 dereferenceable(888) %45)
  br i1 %49, label %50, label %54

50:                                               ; preds = %40
  %51 = load ptr, ptr %4, align 8
  %52 = call noundef ptr @_ZN10JavaThread4castEP6Thread(ptr noundef %51)
  %53 = call noundef zeroext i1 @_ZN12Continuation3pinEP10JavaThread(ptr noundef %52)
  br label %54

54:                                               ; preds = %50, %40
  br label %66

55:                                               ; preds = %36, %22
  %56 = load ptr, ptr @RawMonitor_lock, align 8
  call void @_ZN5Mutex6unlockEv(ptr noundef nonnull align 8 dereferenceable(104) %56)
  br label %57

57:                                               ; preds = %61, %55
  %58 = getelementptr inbounds %"class.JvmtiRawMonitor::QNode", ptr %5, i32 0, i32 4
  %59 = load volatile i32, ptr %58, align 4
  %60 = icmp eq i32 %59, 3
  br i1 %60, label %61, label %65

61:                                               ; preds = %57
  %62 = load ptr, ptr %4, align 8
  %63 = getelementptr inbounds %class.Thread, ptr %62, i32 0, i32 23
  %64 = load volatile ptr, ptr %63, align 8
  call void @_ZN13PlatformEvent4parkEv(ptr noundef nonnull align 8 dereferenceable(144) %64)
  br label %57, !llvm.loop !9

65:                                               ; preds = %57
  br label %7, !llvm.loop !10

66:                                               ; preds = %54, %21
  ret void
}