; Function Attrs: mustprogress nounwind uwtable
define hidden void @_ZN15JvmtiRawMonitor12simple_enterEP6Thread(ptr noundef nonnull align 8 dereferenceable(48) %0, ptr noundef %1) local_unnamed_addr #2 align 2 {
  %3 = alloca %"class.JvmtiRawMonitor::QNode", align 8
  %4 = tail call noundef ptr asm sideeffect "lock cmpxchgq $1,($3)", "={ax},r,{ax},r,~{cc},~{memory},~{dirflag},~{fpsr},~{flags}"(ptr %1, ptr null, ptr nonnull %0) #9, !srcloc !11
  %5 = icmp eq ptr %4, null
  br i1 %5, label %._crit_edge, label %.lr.ph10

.lr.ph10:                                         ; preds = %2
  %6 = getelementptr inbounds i8, ptr %3, i64 8
  %7 = getelementptr inbounds i8, ptr %3, i64 16
  %8 = getelementptr inbounds i8, ptr %1, i64 848
  %9 = getelementptr inbounds i8, ptr %3, i64 24
  %10 = getelementptr inbounds i8, ptr %3, i64 28
  %11 = getelementptr inbounds i8, ptr %0, i64 16
  br label %18

.loopexit:                                        ; preds = %.lr.ph, %36
  %12 = call noundef ptr asm sideeffect "lock cmpxchgq $1,($3)", "={ax},r,{ax},r,~{cc},~{memory},~{dirflag},~{fpsr},~{flags}"(ptr nonnull %1, ptr null, ptr nonnull %0) #9, !srcloc !11
  %13 = icmp eq ptr %12, null
  br i1 %13, label %._crit_edge, label %18, !llvm.loop !12

._crit_edge:                                      ; preds = %.loopexit, %2
  %14 = load ptr, ptr %1, align 8
  %15 = getelementptr inbounds i8, ptr %14, i64 56
  %16 = load ptr, ptr %15, align 8
  %17 = call noundef zeroext i1 %16(ptr noundef nonnull align 8 dereferenceable(888) %1) #9
  br i1 %17, label %.sink.split, label %44

18:                                               ; preds = %.lr.ph10, %.loopexit
  store volatile ptr null, ptr %3, align 8
  store volatile ptr null, ptr %6, align 8
  %19 = load volatile ptr, ptr %8, align 8
  store ptr %19, ptr %7, align 8
  store volatile i32 0, ptr %9, align 8
  store volatile i32 1, ptr %10, align 4
  %20 = load volatile ptr, ptr %8, align 8
  %21 = getelementptr inbounds i8, ptr %20, i64 32
  store volatile i32 0, ptr %21, align 8
  store volatile i32 3, ptr %10, align 4
  %22 = load ptr, ptr @RawMonitor_lock, align 8
  call void @_ZN5Mutex28lock_without_safepoint_checkEv(ptr noundef nonnull align 8 dereferenceable(104) %22) #9
  %23 = load volatile ptr, ptr %11, align 8
  store volatile ptr %23, ptr %3, align 8
  store volatile ptr %3, ptr %11, align 8
  call void asm sideeffect "lock; addl $$0,0(%rsp)", "~{cc},~{memory},~{dirflag},~{fpsr},~{flags}"() #9, !srcloc !9
  call void asm sideeffect "", "~{memory},~{dirflag},~{fpsr},~{flags}"() #9, !srcloc !6
  %24 = load volatile ptr, ptr %0, align 8
  %25 = icmp eq ptr %24, null
  br i1 %25, label %26, label %36

26:                                               ; preds = %18
  %27 = call noundef ptr asm sideeffect "lock cmpxchgq $1,($3)", "={ax},r,{ax},r,~{cc},~{memory},~{dirflag},~{fpsr},~{flags}"(ptr nonnull %1, ptr null, ptr nonnull %0) #9, !srcloc !11
  %28 = icmp eq ptr %27, null
  br i1 %28, label %29, label %36

29:                                               ; preds = %26
  %30 = load volatile ptr, ptr %3, align 8
  store volatile ptr %30, ptr %11, align 8
  %31 = load ptr, ptr @RawMonitor_lock, align 8
  call void @_ZN5Mutex6unlockEv(ptr noundef nonnull align 8 dereferenceable(104) %31) #9
  %32 = load ptr, ptr %1, align 8
  %33 = getelementptr inbounds i8, ptr %32, i64 56
  %34 = load ptr, ptr %33, align 8
  %35 = call noundef zeroext i1 %34(ptr noundef nonnull align 8 dereferenceable(888) %1) #9
  br i1 %35, label %.sink.split, label %44

36:                                               ; preds = %26, %18
  %37 = load ptr, ptr @RawMonitor_lock, align 8
  call void @_ZN5Mutex6unlockEv(ptr noundef nonnull align 8 dereferenceable(104) %37) #9
  %38 = load volatile i32, ptr %10, align 4
  %39 = icmp eq i32 %38, 3
  br i1 %39, label %.lr.ph, label %.loopexit

.lr.ph:                                           ; preds = %36, %.lr.ph
  %40 = load volatile ptr, ptr %8, align 8
  call void @_ZN13PlatformEvent4parkEv(ptr noundef nonnull align 8 dereferenceable(144) %40) #9
  %41 = load volatile i32, ptr %10, align 4
  %42 = icmp eq i32 %41, 3
  br i1 %42, label %.lr.ph, label %.loopexit, !llvm.loop !13

.sink.split:                                      ; preds = %29, %._crit_edge
  %43 = call noundef zeroext i1 @_ZN12Continuation3pinEP10JavaThread(ptr noundef nonnull %1) #9
  br label %44

44:                                               ; preds = %.sink.split, %29, %._crit_edge
  ret void
}